; Function Attrs: nounwind sspstrong uwtable
define dso_local i64 @rb_mod_included_modules(i64 noundef %0) local_unnamed_addr #0 {
  %2 = tail call i64 @rb_ary_new() #19
  %3 = inttoptr i64 %0 to ptr
  %4 = getelementptr inbounds nuw i8, ptr %3, i64 112
  %5 = load i64, ptr %4, align 8, !tbaa !46
  %.0.in16 = getelementptr inbounds nuw i8, ptr %3, i64 16
  %.017 = load i64, ptr %.0.in16, align 8, !tbaa !34
  %.not18 = icmp eq i64 %.017, 0
  br i1 %.not18, label %._crit_edge, label %.lr.ph

.lr.ph:                                           ; preds = %1, %rbimpl_RB_TYPE_P_fastpath.exit.thread
  %.019 = phi i64 [ %.0, %rbimpl_RB_TYPE_P_fastpath.exit.thread ], [ %.017, %1 ]
  %.not14 = icmp eq i64 %.019, %5
  %.pre = inttoptr i64 %.019 to ptr
  br i1 %.not14, label %rbimpl_RB_TYPE_P_fastpath.exit.thread, label %6

6:                                                ; preds = %.lr.ph
  %7 = getelementptr inbounds nuw i8, ptr %.pre, i64 112
  %8 = load i64, ptr %7, align 8, !tbaa !46
  %9 = icmp eq i64 %8, %.019
  br i1 %9, label %10, label %rbimpl_RB_TYPE_P_fastpath.exit.thread

10:                                               ; preds = %6
  %11 = load i64, ptr %.pre, align 8, !tbaa !35
  %12 = and i64 %11, 31
  %13 = icmp eq i64 %12, 28
  br i1 %13, label %14, label %rbimpl_RB_TYPE_P_fastpath.exit.thread

14:                                               ; preds = %10
  %15 = getelementptr inbounds nuw i8, ptr %.pre, i64 8
  %16 = load i64, ptr %15, align 8, !tbaa !42
  %17 = icmp eq i64 %16, 0
  %18 = and i64 %16, 7
  %19 = icmp ne i64 %18, 0
  %20 = or i1 %17, %19
  br i1 %20, label %rbimpl_RB_TYPE_P_fastpath.exit.thread, label %rbimpl_RB_TYPE_P_fastpath.exit

rbimpl_RB_TYPE_P_fastpath.exit:                   ; preds = %14
  %21 = inttoptr i64 %16 to ptr
  %22 = load i64, ptr %21, align 8, !tbaa !35
  %23 = and i64 %22, 31
  %24 = icmp eq i64 %23, 3
  br i1 %24, label %25, label %rbimpl_RB_TYPE_P_fastpath.exit.thread

25:                                               ; preds = %rbimpl_RB_TYPE_P_fastpath.exit
  %26 = tail call i64 @rb_ary_push(i64 noundef %2, i64 noundef %16) #19
  br label %rbimpl_RB_TYPE_P_fastpath.exit.thread

rbimpl_RB_TYPE_P_fastpath.exit.thread:            ; preds = %.lr.ph, %14, %rbimpl_RB_TYPE_P_fastpath.exit, %25, %6, %10
  %.0.in = getelementptr inbounds nuw i8, ptr %.pre, i64 16
  %.0 = load i64, ptr %.0.in, align 8, !tbaa !34
  %.not = icmp eq i64 %.0, 0
  br i1 %.not, label %._crit_edge, label %.lr.ph, !llvm.loop !75

._crit_edge:                                      ; preds = %rbimpl_RB_TYPE_P_fastpath.exit.thread, %1
  ret i64 %2
}